; ModuleID = '10/1127.c'
source_filename = "10/1127.c"
target datalayout = "e-m:e-p270:32:32-p271:32:32-p272:64:64-i64:64-f80:128-n8:16:32:64-S128"
target triple = "x86_64-pc-linux-gnu"

@.str = private unnamed_addr constant [3 x i8] c"%d\00", align 1
@a = common dso_local global [100 x i32] zeroinitializer, align 16

; Function Attrs: noinline nounwind uwtable
define dso_local i32 @f(i32* %0, i32 %1, i32 %2) #0 {
  %4 = alloca i32, align 4
  %5 = alloca i32*, align 8
  %6 = alloca i32, align 4
  %7 = alloca i32, align 4
  store i32* %0, i32** %5, align 8
  store i32 %1, i32* %6, align 4
  store i32 %2, i32* %7, align 4
  %8 = load i32, i32* %6, align 4
  %9 = icmp eq i32 %8, 1
  br i1 %9, label %10, label %18

10:                                               ; preds = %3
  %11 = load i32*, i32** %5, align 8
  %12 = getelementptr inbounds i32, i32* %11, i64 0
  %13 = load i32, i32* %12, align 4
  %14 = load i32, i32* %7, align 4
  %15 = icmp sge i32 %13, %14
  br i1 %15, label %16, label %17

16:                                               ; preds = %10
  store i32 1, i32* %4, align 4
  br label %69

17:                                               ; preds = %10
  store i32 0, i32* %4, align 4
  br label %69

18:                                               ; preds = %3
  %19 = load i32*, i32** %5, align 8
  %20 = load i32, i32* %6, align 4
  %21 = sub nsw i32 %20, 1
  %22 = sext i32 %21 to i64
  %23 = getelementptr inbounds i32, i32* %19, i64 %22
  %24 = load i32, i32* %23, align 4
  %25 = load i32, i32* %7, align 4
  %26 = icmp slt i32 %24, %25
  br i1 %26, label %27, label %33

27:                                               ; preds = %18
  %28 = load i32*, i32** %5, align 8
  %29 = load i32, i32* %6, align 4
  %30 = sub nsw i32 %29, 1
  %31 = load i32, i32* %7, align 4
  %32 = call i32 @f(i32* %28, i32 %30, i32 %31)
  store i32 %32, i32* %4, align 4
  br label %69

33:                                               ; preds = %18
  %34 = load i32*, i32** %5, align 8
  %35 = load i32, i32* %6, align 4
  %36 = sub nsw i32 %35, 1
  %37 = load i32*, i32** %5, align 8
  %38 = load i32, i32* %6, align 4
  %39 = sub nsw i32 %38, 1
  %40 = sext i32 %39 to i64
  %41 = getelementptr inbounds i32, i32* %37, i64 %40
  %42 = load i32, i32* %41, align 4
  %43 = call i32 @f(i32* %34, i32 %36, i32 %42)
  %44 = add nsw i32 %43, 1
  %45 = load i32*, i32** %5, align 8
  %46 = load i32, i32* %6, align 4
  %47 = sub nsw i32 %46, 1
  %48 = load i32, i32* %7, align 4
  %49 = call i32 @f(i32* %45, i32 %47, i32 %48)
  %50 = icmp slt i32 %44, %49
  br i1 %50, label %51, label %57

51:                                               ; preds = %33
  %52 = load i32*, i32** %5, align 8
  %53 = load i32, i32* %6, align 4
  %54 = sub nsw i32 %53, 1
  %55 = load i32, i32* %7, align 4
  %56 = call i32 @f(i32* %52, i32 %54, i32 %55)
  store i32 %56, i32* %4, align 4
  br label %69

57:                                               ; preds = %33
  %58 = load i32*, i32** %5, align 8
  %59 = load i32, i32* %6, align 4
  %60 = sub nsw i32 %59, 1
  %61 = load i32*, i32** %5, align 8
  %62 = load i32, i32* %6, align 4
  %63 = sub nsw i32 %62, 1
  %64 = sext i32 %63 to i64
  %65 = getelementptr inbounds i32, i32* %61, i64 %64
  %66 = load i32, i32* %65, align 4
  %67 = call i32 @f(i32* %58, i32 %60, i32 %66)
  %68 = add nsw i32 %67, 1
  store i32 %68, i32* %4, align 4
  br label %69

69:                                               ; preds = %57, %51, %27, %17, %16
  %70 = load i32, i32* %4, align 4
  ret i32 %70
}

; Function Attrs: noinline nounwind uwtable
define dso_local i32 @main() #0 {
  %1 = alloca i32, align 4
  %2 = alloca i32, align 4
  %3 = alloca i32, align 4
  %4 = alloca i32, align 4
  store i32 0, i32* %1, align 4
  %5 = call i32 (i8*, ...) @__isoc99_scanf(i8* getelementptr inbounds ([3 x i8], [3 x i8]* @.str, i64 0, i64 0), i32* %2)
  store i32 0, i32* %3, align 4
  br label %6

6:                                                ; preds = %15, %0
  %7 = load i32, i32* %3, align 4
  %8 = load i32, i32* %2, align 4
  %9 = icmp slt i32 %7, %8
  br i1 %9, label %10, label %18

10:                                               ; preds = %6
  %11 = load i32, i32* %3, align 4
  %12 = sext i32 %11 to i64
  %13 = getelementptr inbounds [100 x i32], [100 x i32]* @a, i64 0, i64 %12
  %14 = call i32 (i8*, ...) @__isoc99_scanf(i8* getelementptr inbounds ([3 x i8], [3 x i8]* @.str, i64 0, i64 0), i32* %13)
  br label %15

15:                                               ; preds = %10
  %16 = load i32, i32* %3, align 4
  %17 = add nsw i32 %16, 1
  store i32 %17, i32* %3, align 4
  br label %6

18:                                               ; preds = %6
  %19 = load i32, i32* %2, align 4
  %20 = call i32 @f(i32* getelementptr inbounds ([100 x i32], [100 x i32]* @a, i64 0, i64 0), i32 %19, i32 0)
  store i32 %20, i32* %4, align 4
  %21 = load i32, i32* %4, align 4
  %22 = call i32 (i8*, ...) @printf(i8* getelementptr inbounds ([3 x i8], [3 x i8]* @.str, i64 0, i64 0), i32 %21)
  ret i32 0
}

declare dso_local i32 @__isoc99_scanf(i8*, ...) #1

declare dso_local i32 @printf(i8*, ...) #1


!llvm.module.flags = !{!0}
!llvm.ident = !{!1}

!0 = !{i32 1, !"wchar_size", i32 4}
!1 = !{!"clang version 10.0.0-4ubuntu1 "}
